; Function Attrs: mustprogress uwtable
define dso_local void @_ZN29cmLocalUnixMakefileGenerator330MaybeConvertWatcomShellCommandERKNSt7__cxx1112basic_stringIcSt11char_traitsIcESaIcEEE(ptr dead_on_unwind noalias writable sret(%"class.std::__cxx11::basic_string") align 8 %0, ptr noundef nonnull align 8 dereferenceable(1112) %1, ptr noundef nonnull align 8 dereferenceable(32) %2) local_unnamed_addr #3 align 2 personality ptr @__gxx_personality_v0 {
  %4 = alloca %"class.std::__cxx11::basic_string", align 8
  %5 = tail call noundef zeroext i1 @_ZNK16cmLocalGenerator13IsWatcomWMakeEv(ptr noundef nonnull align 8 dereferenceable(824) %1)
  br i1 %5, label %6, label %22

6:                                                ; preds = %3
  %7 = tail call noundef zeroext i1 @_ZN5cmsys11SystemTools14FileIsFullPathERKNSt7__cxx1112basic_stringIcSt11char_traitsIcESaIcEEE(ptr noundef nonnull align 8 dereferenceable(32) %2)
  br i1 %7, label %8, label %22

8:                                                ; preds = %6
  %9 = tail call noundef i64 @_ZNKSt7__cxx1112basic_stringIcSt11char_traitsIcESaIcEE13find_first_ofEPKcm(ptr noundef nonnull align 8 dereferenceable(32) %2, ptr noundef nonnull @.str.54, i64 noundef 0) #20
  %.not = icmp eq i64 %9, -1
  br i1 %.not, label %22, label %10

10:                                               ; preds = %8
  call void @_ZNSt7__cxx1112basic_stringIcSt11char_traitsIcESaIcEEC1Ev(ptr noundef nonnull align 8 dereferenceable(32) %4) #20
  %11 = invoke i64 @_ZN5cmsys11SystemTools12GetShortPathERKNSt7__cxx1112basic_stringIcSt11char_traitsIcESaIcEEERS6_(ptr noundef nonnull align 8 dereferenceable(32) %2, ptr noundef nonnull align 8 dereferenceable(32) %4)
          to label %12 unwind label %19

12:                                               ; preds = %10
  %13 = and i64 %11, 4294967295
  %14 = icmp eq i64 %13, 0
  br i1 %14, label %15, label %.thread

.thread:                                          ; preds = %12
  call void @_ZNSt7__cxx1112basic_stringIcSt11char_traitsIcESaIcEED1Ev(ptr noundef nonnull align 8 dereferenceable(32) %4) #20
  br label %22

15:                                               ; preds = %12
  %16 = call { i64, ptr } @_ZNKSt7__cxx1112basic_stringIcSt11char_traitsIcESaIcEEcvSt17basic_string_viewIcS2_EEv(ptr noundef nonnull align 8 dereferenceable(32) %4) #20
  %17 = extractvalue { i64, ptr } %16, 0
  %18 = extractvalue { i64, ptr } %16, 1
  invoke void @_ZNK17cmOutputConverter21ConvertToOutputFormatB5cxx11ESt17basic_string_viewIcSt11char_traitsIcEENS_12OutputFormatEb(ptr dead_on_unwind writable sret(%"class.std::__cxx11::basic_string") align 8 %0, ptr noundef nonnull align 8 dereferenceable(108) %1, i64 %17, ptr %18, i32 noundef 0, i1 noundef zeroext false)
          to label %21 unwind label %19

19:                                               ; preds = %15, %10
  %20 = landingpad { ptr, i32 }
          cleanup
  call void @_ZNSt7__cxx1112basic_stringIcSt11char_traitsIcESaIcEED1Ev(ptr noundef nonnull align 8 dereferenceable(32) %4) #20
  resume { ptr, i32 } %20

21:                                               ; preds = %15
  call void @_ZNSt7__cxx1112basic_stringIcSt11char_traitsIcESaIcEED1Ev(ptr noundef nonnull align 8 dereferenceable(32) %4) #20
  br label %23

22:                                               ; preds = %.thread, %8, %6, %3
  call void @_ZNSt7__cxx1112basic_stringIcSt11char_traitsIcESaIcEEC1Ev(ptr noundef nonnull align 8 dereferenceable(32) %0) #20
  br label %23

23:                                               ; preds = %21, %22
  ret void
}